target datalayout = "e-m:e-p270:32:32-p271:32:32-p272:64:64-i64:64-i128:128-f80:128-n8:16:32:64-S128"
target triple = "x86_64-pc-linux-gnu"

; Function Attrs: nounwind uwtable
define internal void @pred4x4_vertical_left_rv40(ptr noundef %0, ptr noundef %1, i64 noundef %2, i32 noundef %3, i32 noundef %4, i32 noundef %5, i32 noundef %6, i32 noundef %7) #1 {
  %9 = alloca ptr, align 8
  %10 = alloca ptr, align 8
  %11 = alloca i64, align 8
  %12 = alloca i32, align 4
  %13 = alloca i32, align 4
  %14 = alloca i32, align 4
  %15 = alloca i32, align 4
  %16 = alloca i32, align 4
  %17 = alloca i32, align 4
  %18 = alloca i32, align 4
  %19 = alloca i32, align 4
  %20 = alloca i32, align 4
  %21 = alloca i32, align 4
  %22 = alloca i32, align 4
  %23 = alloca i32, align 4
  %24 = alloca i32, align 4
  store ptr %0, ptr %9, align 8, !tbaa !12
  store ptr %1, ptr %10, align 8, !tbaa !12
  store i64 %2, ptr %11, align 8, !tbaa !14
  store i32 %3, ptr %12, align 4, !tbaa !9
  store i32 %4, ptr %13, align 4, !tbaa !9
  store i32 %5, ptr %14, align 4, !tbaa !9
  store i32 %6, ptr %15, align 4, !tbaa !9
  store i32 %7, ptr %16, align 4, !tbaa !9
  call void @llvm.lifetime.start.p0(i64 4, ptr %17) #9
  %25 = load ptr, ptr %9, align 8, !tbaa !12
  %26 = load i64, ptr %11, align 8, !tbaa !14
  %27 = mul nsw i64 1, %26
  %28 = sub nsw i64 0, %27
  %29 = getelementptr inbounds i8, ptr %25, i64 %28
  %30 = load i8, ptr %29, align 1, !tbaa !18
  %31 = zext i8 %30 to i32
  store i32 %31, ptr %17, align 4, !tbaa !9
  call void @llvm.lifetime.start.p0(i64 4, ptr %18) #9
  %32 = load ptr, ptr %9, align 8, !tbaa !12
  %33 = load i64, ptr %11, align 8, !tbaa !14
  %34 = mul nsw i64 1, %33
  %35 = sub nsw i64 1, %34
  %36 = getelementptr inbounds i8, ptr %32, i64 %35
  %37 = load i8, ptr %36, align 1, !tbaa !18
  %38 = zext i8 %37 to i32
  store i32 %38, ptr %18, align 4, !tbaa !9
  call void @llvm.lifetime.start.p0(i64 4, ptr %19) #9
  %39 = load ptr, ptr %9, align 8, !tbaa !12
  %40 = load i64, ptr %11, align 8, !tbaa !14
  %41 = mul nsw i64 1, %40
  %42 = sub nsw i64 2, %41
  %43 = getelementptr inbounds i8, ptr %39, i64 %42
  %44 = load i8, ptr %43, align 1, !tbaa !18
  %45 = zext i8 %44 to i32
  store i32 %45, ptr %19, align 4, !tbaa !9
  call void @llvm.lifetime.start.p0(i64 4, ptr %20) #9
  %46 = load ptr, ptr %9, align 8, !tbaa !12
  %47 = load i64, ptr %11, align 8, !tbaa !14
  %48 = mul nsw i64 1, %47
  %49 = sub nsw i64 3, %48
  %50 = getelementptr inbounds i8, ptr %46, i64 %49
  %51 = load i8, ptr %50, align 1, !tbaa !18
  %52 = zext i8 %51 to i32
  store i32 %52, ptr %20, align 4, !tbaa !9
  call void @llvm.lifetime.start.p0(i64 4, ptr %21) #9
  %53 = load ptr, ptr %10, align 8, !tbaa !12
  %54 = getelementptr inbounds i8, ptr %53, i64 0
  %55 = load i8, ptr %54, align 1, !tbaa !18
  %56 = zext i8 %55 to i32
  store i32 %56, ptr %21, align 4, !tbaa !9
  call void @llvm.lifetime.start.p0(i64 4, ptr %22) #9
  %57 = load ptr, ptr %10, align 8, !tbaa !12
  %58 = getelementptr inbounds i8, ptr %57, i64 1
  %59 = load i8, ptr %58, align 1, !tbaa !18
  %60 = zext i8 %59 to i32
  store i32 %60, ptr %22, align 4, !tbaa !9
  call void @llvm.lifetime.start.p0(i64 4, ptr %23) #9
  %61 = load ptr, ptr %10, align 8, !tbaa !12
  %62 = getelementptr inbounds i8, ptr %61, i64 2
  %63 = load i8, ptr %62, align 1, !tbaa !18
  %64 = zext i8 %63 to i32
  store i32 %64, ptr %23, align 4, !tbaa !9
  call void @llvm.lifetime.start.p0(i64 4, ptr %24) #9
  %65 = load ptr, ptr %10, align 8, !tbaa !12
  %66 = getelementptr inbounds i8, ptr %65, i64 3
  %67 = load i8, ptr %66, align 1, !tbaa !18
  %68 = zext i8 %67 to i32
  store i32 %68, ptr %24, align 4, !tbaa !9
  %69 = load i32, ptr %17, align 4, !tbaa !9
  %70 = mul i32 2, %69
  %71 = load i32, ptr %18, align 4, !tbaa !9
  %72 = mul i32 2, %71
  %73 = add i32 %70, %72
  %74 = load i32, ptr %13, align 4, !tbaa !9
  %75 = add i32 %73, %74
  %76 = load i32, ptr %14, align 4, !tbaa !9
  %77 = mul nsw i32 2, %76
  %78 = add i32 %75, %77
  %79 = load i32, ptr %15, align 4, !tbaa !9
  %80 = add i32 %78, %79
  %81 = add i32 %80, 4
  %82 = lshr i32 %81, 3
  %83 = trunc i32 %82 to i8
  %84 = load ptr, ptr %9, align 8, !tbaa !12
  %85 = load i64, ptr %11, align 8, !tbaa !14
  %86 = mul nsw i64 0, %85
  %87 = add nsw i64 0, %86
  %88 = getelementptr inbounds i8, ptr %84, i64 %87
  store i8 %83, ptr %88, align 1, !tbaa !18
  %89 = load i32, ptr %18, align 4, !tbaa !9
  %90 = load i32, ptr %19, align 4, !tbaa !9
  %91 = add i32 %89, %90
  %92 = add i32 %91, 1
  %93 = lshr i32 %92, 1
  %94 = trunc i32 %93 to i8
  %95 = load ptr, ptr %9, align 8, !tbaa !12
  %96 = load i64, ptr %11, align 8, !tbaa !14
  %97 = mul nsw i64 2, %96
  %98 = add nsw i64 0, %97
  %99 = getelementptr inbounds i8, ptr %95, i64 %98
  store i8 %94, ptr %99, align 1, !tbaa !18
  %100 = load ptr, ptr %9, align 8, !tbaa !12
  %101 = load i64, ptr %11, align 8, !tbaa !14
  %102 = mul nsw i64 0, %101
  %103 = add nsw i64 1, %102
  %104 = getelementptr inbounds i8, ptr %100, i64 %103
  store i8 %94, ptr %104, align 1, !tbaa !18
  %105 = load i32, ptr %19, align 4, !tbaa !9
  %106 = load i32, ptr %20, align 4, !tbaa !9
  %107 = add i32 %105, %106
  %108 = add i32 %107, 1
  %109 = lshr i32 %108, 1
  %110 = trunc i32 %109 to i8
  %111 = load ptr, ptr %9, align 8, !tbaa !12
  %112 = load i64, ptr %11, align 8, !tbaa !14
  %113 = mul nsw i64 2, %112
  %114 = add nsw i64 1, %113
  %115 = getelementptr inbounds i8, ptr %111, i64 %114
  store i8 %110, ptr %115, align 1, !tbaa !18
  %116 = load ptr, ptr %9, align 8, !tbaa !12
  %117 = load i64, ptr %11, align 8, !tbaa !14
  %118 = mul nsw i64 0, %117
  %119 = add nsw i64 2, %118
  %120 = getelementptr inbounds i8, ptr %116, i64 %119
  store i8 %110, ptr %120, align 1, !tbaa !18
  %121 = load i32, ptr %20, align 4, !tbaa !9
  %122 = load i32, ptr %21, align 4, !tbaa !9
  %123 = add i32 %121, %122
  %124 = add i32 %123, 1
  %125 = lshr i32 %124, 1
  %126 = trunc i32 %125 to i8
  %127 = load ptr, ptr %9, align 8, !tbaa !12
  %128 = load i64, ptr %11, align 8, !tbaa !14
  %129 = mul nsw i64 2, %128
  %130 = add nsw i64 2, %129
  %131 = getelementptr inbounds i8, ptr %127, i64 %130
  store i8 %126, ptr %131, align 1, !tbaa !18
  %132 = load ptr, ptr %9, align 8, !tbaa !12
  %133 = load i64, ptr %11, align 8, !tbaa !14
  %134 = mul nsw i64 0, %133
  %135 = add nsw i64 3, %134
  %136 = getelementptr inbounds i8, ptr %132, i64 %135
  store i8 %126, ptr %136, align 1, !tbaa !18
  %137 = load i32, ptr %21, align 4, !tbaa !9
  %138 = load i32, ptr %22, align 4, !tbaa !9
  %139 = add i32 %137, %138
  %140 = add i32 %139, 1
  %141 = lshr i32 %140, 1
  %142 = trunc i32 %141 to i8
  %143 = load ptr, ptr %9, align 8, !tbaa !12
  %144 = load i64, ptr %11, align 8, !tbaa !14
  %145 = mul nsw i64 2, %144
  %146 = add nsw i64 3, %145
  %147 = getelementptr inbounds i8, ptr %143, i64 %146
  store i8 %142, ptr %147, align 1, !tbaa !18
  %148 = load i32, ptr %17, align 4, !tbaa !9
  %149 = load i32, ptr %18, align 4, !tbaa !9
  %150 = mul i32 2, %149
  %151 = add i32 %148, %150
  %152 = load i32, ptr %19, align 4, !tbaa !9
  %153 = add i32 %151, %152
  %154 = load i32, ptr %14, align 4, !tbaa !9
  %155 = add i32 %153, %154
  %156 = load i32, ptr %15, align 4, !tbaa !9
  %157 = mul nsw i32 2, %156
  %158 = add i32 %155, %157
  %159 = load i32, ptr %16, align 4, !tbaa !9
  %160 = add i32 %158, %159
  %161 = add i32 %160, 4
  %162 = lshr i32 %161, 3
  %163 = trunc i32 %162 to i8
  %164 = load ptr, ptr %9, align 8, !tbaa !12
  %165 = load i64, ptr %11, align 8, !tbaa !14
  %166 = mul nsw i64 1, %165
  %167 = add nsw i64 0, %166
  %168 = getelementptr inbounds i8, ptr %164, i64 %167
  store i8 %163, ptr %168, align 1, !tbaa !18
  %169 = load i32, ptr %18, align 4, !tbaa !9
  %170 = load i32, ptr %19, align 4, !tbaa !9
  %171 = mul i32 2, %170
  %172 = add i32 %169, %171
  %173 = load i32, ptr %20, align 4, !tbaa !9
  %174 = add i32 %172, %173
  %175 = add i32 %174, 2
  %176 = lshr i32 %175, 2
  %177 = trunc i32 %176 to i8
  %178 = load ptr, ptr %9, align 8, !tbaa !12
  %179 = load i64, ptr %11, align 8, !tbaa !14
  %180 = mul nsw i64 3, %179
  %181 = add nsw i64 0, %180
  %182 = getelementptr inbounds i8, ptr %178, i64 %181
  store i8 %177, ptr %182, align 1, !tbaa !18
  %183 = load ptr, ptr %9, align 8, !tbaa !12
  %184 = load i64, ptr %11, align 8, !tbaa !14
  %185 = mul nsw i64 1, %184
  %186 = add nsw i64 1, %185
  %187 = getelementptr inbounds i8, ptr %183, i64 %186
  store i8 %177, ptr %187, align 1, !tbaa !18
  %188 = load i32, ptr %19, align 4, !tbaa !9
  %189 = load i32, ptr %20, align 4, !tbaa !9
  %190 = mul i32 2, %189
  %191 = add i32 %188, %190
  %192 = load i32, ptr %21, align 4, !tbaa !9
  %193 = add i32 %191, %192
  %194 = add i32 %193, 2
  %195 = lshr i32 %194, 2
  %196 = trunc i32 %195 to i8
  %197 = load ptr, ptr %9, align 8, !tbaa !12
  %198 = load i64, ptr %11, align 8, !tbaa !14
  %199 = mul nsw i64 3, %198
  %200 = add nsw i64 1, %199
  %201 = getelementptr inbounds i8, ptr %197, i64 %200
  store i8 %196, ptr %201, align 1, !tbaa !18
  %202 = load ptr, ptr %9, align 8, !tbaa !12
  %203 = load i64, ptr %11, align 8, !tbaa !14
  %204 = mul nsw i64 1, %203
  %205 = add nsw i64 2, %204
  %206 = getelementptr inbounds i8, ptr %202, i64 %205
  store i8 %196, ptr %206, align 1, !tbaa !18
  %207 = load i32, ptr %20, align 4, !tbaa !9
  %208 = load i32, ptr %21, align 4, !tbaa !9
  %209 = mul i32 2, %208
  %210 = add i32 %207, %209
  %211 = load i32, ptr %22, align 4, !tbaa !9
  %212 = add i32 %210, %211
  %213 = add i32 %212, 2
  %214 = lshr i32 %213, 2
  %215 = trunc i32 %214 to i8
  %216 = load ptr, ptr %9, align 8, !tbaa !12
  %217 = load i64, ptr %11, align 8, !tbaa !14
  %218 = mul nsw i64 3, %217
  %219 = add nsw i64 2, %218
  %220 = getelementptr inbounds i8, ptr %216, i64 %219
  store i8 %215, ptr %220, align 1, !tbaa !18
  %221 = load ptr, ptr %9, align 8, !tbaa !12
  %222 = load i64, ptr %11, align 8, !tbaa !14
  %223 = mul nsw i64 1, %222
  %224 = add nsw i64 3, %223
  %225 = getelementptr inbounds i8, ptr %221, i64 %224
  store i8 %215, ptr %225, align 1, !tbaa !18
  %226 = load i32, ptr %21, align 4, !tbaa !9
  %227 = load i32, ptr %22, align 4, !tbaa !9
  %228 = mul i32 2, %227
  %229 = add i32 %226, %228
  %230 = load i32, ptr %23, align 4, !tbaa !9
  %231 = add i32 %229, %230
  %232 = add i32 %231, 2
  %233 = lshr i32 %232, 2
  %234 = trunc i32 %233 to i8
  %235 = load ptr, ptr %9, align 8, !tbaa !12
  %236 = load i64, ptr %11, align 8, !tbaa !14
  %237 = mul nsw i64 3, %236
  %238 = add nsw i64 3, %237
  %239 = getelementptr inbounds i8, ptr %235, i64 %238
  store i8 %234, ptr %239, align 1, !tbaa !18
  call void @llvm.lifetime.end.p0(i64 4, ptr %24) #9
  call void @llvm.lifetime.end.p0(i64 4, ptr %23) #9
  call void @llvm.lifetime.end.p0(i64 4, ptr %22) #9
  call void @llvm.lifetime.end.p0(i64 4, ptr %21) #9
  call void @llvm.lifetime.end.p0(i64 4, ptr %20) #9
  call void @llvm.lifetime.end.p0(i64 4, ptr %19) #9
  call void @llvm.lifetime.end.p0(i64 4, ptr %18) #9
  call void @llvm.lifetime.end.p0(i64 4, ptr %17) #9
  ret void
}

; Function Attrs: nounwind uwtable
define internal void @pred4x4_vertical_left_rv40_nodown_c(ptr noundef %0, ptr noundef %1, i64 noundef %2) #1 {
  %4 = alloca ptr, align 8
  %5 = alloca ptr, align 8
  %6 = alloca i64, align 8
  %7 = alloca i32, align 4
  %8 = alloca i32, align 4
  %9 = alloca i32, align 4
  %10 = alloca i32, align 4
  store ptr %0, ptr %4, align 8, !tbaa !12
  store ptr %1, ptr %5, align 8, !tbaa !12
  store i64 %2, ptr %6, align 8, !tbaa !14
  call void @llvm.lifetime.start.p0(i64 4, ptr %7) #9
  %11 = load ptr, ptr %4, align 8, !tbaa !12
  %12 = load i64, ptr %6, align 8, !tbaa !14
  %13 = mul nsw i64 0, %12
  %14 = add nsw i64 -1, %13
  %15 = getelementptr inbounds i8, ptr %11, i64 %14
  %16 = load i8, ptr %15, align 1, !tbaa !18
  %17 = zext i8 %16 to i32
  store i32 %17, ptr %7, align 4, !tbaa !9
  call void @llvm.lifetime.start.p0(i64 4, ptr %8) #9
  %18 = load ptr, ptr %4, align 8, !tbaa !12
  %19 = load i64, ptr %6, align 8, !tbaa !14
  %20 = mul nsw i64 1, %19
  %21 = add nsw i64 -1, %20
  %22 = getelementptr inbounds i8, ptr %18, i64 %21
  %23 = load i8, ptr %22, align 1, !tbaa !18
  %24 = zext i8 %23 to i32
  store i32 %24, ptr %8, align 4, !tbaa !9
  call void @llvm.lifetime.start.p0(i64 4, ptr %9) #9
  %25 = load ptr, ptr %4, align 8, !tbaa !12
  %26 = load i64, ptr %6, align 8, !tbaa !14
  %27 = mul nsw i64 2, %26
  %28 = add nsw i64 -1, %27
  %29 = getelementptr inbounds i8, ptr %25, i64 %28
  %30 = load i8, ptr %29, align 1, !tbaa !18
  %31 = zext i8 %30 to i32
  store i32 %31, ptr %9, align 4, !tbaa !9
  call void @llvm.lifetime.start.p0(i64 4, ptr %10) #9
  %32 = load ptr, ptr %4, align 8, !tbaa !12
  %33 = load i64, ptr %6, align 8, !tbaa !14
  %34 = mul nsw i64 3, %33
  %35 = add nsw i64 -1, %34
  %36 = getelementptr inbounds i8, ptr %32, i64 %35
  %37 = load i8, ptr %36, align 1, !tbaa !18
  %38 = zext i8 %37 to i32
  store i32 %38, ptr %10, align 4, !tbaa !9
  %39 = load ptr, ptr %4, align 8, !tbaa !12
  %40 = load ptr, ptr %5, align 8, !tbaa !12
  %41 = load i64, ptr %6, align 8, !tbaa !14
  %42 = load i32, ptr %7, align 4, !tbaa !9
  %43 = load i32, ptr %8, align 4, !tbaa !9
  %44 = load i32, ptr %9, align 4, !tbaa !9
  %45 = load i32, ptr %10, align 4, !tbaa !9
  %46 = load i32, ptr %10, align 4, !tbaa !9
  call void @pred4x4_vertical_left_rv40(ptr noundef %39, ptr noundef %40, i64 noundef %41, i32 noundef %42, i32 noundef %43, i32 noundef %44, i32 noundef %45, i32 noundef %46)
  call void @llvm.lifetime.end.p0(i64 4, ptr %10) #9
  call void @llvm.lifetime.end.p0(i64 4, ptr %9) #9
  call void @llvm.lifetime.end.p0(i64 4, ptr %8) #9
  call void @llvm.lifetime.end.p0(i64 4, ptr %7) #9
  ret void
}