; Function Attrs: mustprogress nofree norecurse nosync nounwind willreturn memory(argmem: readwrite) uwtable
define internal void @pred4x4_vertical_left_rv40_nodown_c(ptr noundef captures(none) %0, ptr noundef readonly captures(none) %1, i64 noundef %2) #1 {
  %4 = getelementptr i8, ptr %0, i64 %2
  %5 = getelementptr i8, ptr %4, i64 -1
  %6 = load i8, ptr %5, align 1, !tbaa !8
  %7 = zext i8 %6 to i32
  %8 = shl nsw i64 %2, 1
  %9 = getelementptr i8, ptr %0, i64 %8
  %10 = getelementptr i8, ptr %9, i64 -1
  %11 = load i8, ptr %10, align 1, !tbaa !8
  %12 = zext i8 %11 to i32
  %13 = mul nsw i64 %2, 3
  %14 = getelementptr i8, ptr %0, i64 %13
  %15 = getelementptr i8, ptr %14, i64 -1
  %16 = load i8, ptr %15, align 1, !tbaa !8
  %17 = zext i8 %16 to i32
  %18 = sub nsw i64 0, %2
  %19 = getelementptr inbounds i8, ptr %0, i64 %18
  %20 = load i8, ptr %19, align 1, !tbaa !8
  %21 = zext i8 %20 to i32
  %22 = sub nsw i64 1, %2
  %23 = getelementptr inbounds i8, ptr %0, i64 %22
  %24 = load i8, ptr %23, align 1, !tbaa !8
  %25 = zext i8 %24 to i32
  %26 = sub nsw i64 2, %2
  %27 = getelementptr inbounds i8, ptr %0, i64 %26
  %28 = load i8, ptr %27, align 1, !tbaa !8
  %29 = zext i8 %28 to i32
  %30 = sub nsw i64 3, %2
  %31 = getelementptr inbounds i8, ptr %0, i64 %30
  %32 = load i8, ptr %31, align 1, !tbaa !8
  %33 = zext i8 %32 to i32
  %34 = load i8, ptr %1, align 1, !tbaa !8
  %35 = zext i8 %34 to i32
  %36 = getelementptr inbounds nuw i8, ptr %1, i64 1
  %37 = load i8, ptr %36, align 1, !tbaa !8
  %38 = zext i8 %37 to i32
  %39 = getelementptr inbounds nuw i8, ptr %1, i64 2
  %40 = load i8, ptr %39, align 1, !tbaa !8
  %41 = zext i8 %40 to i32
  %42 = add nuw nsw i32 %21, %12
  %43 = add nuw nsw i32 %42, %25
  %44 = shl nuw nsw i32 %43, 1
  %45 = add nuw nsw i32 %17, 4
  %46 = add nuw nsw i32 %45, %7
  %47 = add nuw nsw i32 %46, %44
  %48 = lshr i32 %47, 3
  %49 = trunc nuw i32 %48 to i8
  store i8 %49, ptr %0, align 1, !tbaa !8
  %50 = add nuw nsw i32 %29, 1
  %51 = add nuw nsw i32 %50, %25
  %52 = lshr i32 %51, 1
  %53 = trunc nuw i32 %52 to i8
  store i8 %53, ptr %9, align 1, !tbaa !8
  %54 = getelementptr inbounds nuw i8, ptr %0, i64 1
  store i8 %53, ptr %54, align 1, !tbaa !8
  %55 = add nuw nsw i32 %50, %33
  %56 = lshr i32 %55, 1
  %57 = trunc nuw i32 %56 to i8
  %58 = getelementptr i8, ptr %9, i64 1
  store i8 %57, ptr %58, align 1, !tbaa !8
  %59 = getelementptr inbounds nuw i8, ptr %0, i64 2
  store i8 %57, ptr %59, align 1, !tbaa !8
  %60 = add nuw nsw i32 %35, 1
  %61 = add nuw nsw i32 %60, %33
  %62 = lshr i32 %61, 1
  %63 = trunc nuw i32 %62 to i8
  %64 = getelementptr i8, ptr %9, i64 2
  store i8 %63, ptr %64, align 1, !tbaa !8
  %65 = getelementptr inbounds nuw i8, ptr %0, i64 3
  store i8 %63, ptr %65, align 1, !tbaa !8
  %66 = add nuw nsw i32 %60, %38
  %67 = lshr i32 %66, 1
  %68 = trunc nuw i32 %67 to i8
  %69 = getelementptr i8, ptr %9, i64 3
  store i8 %68, ptr %69, align 1, !tbaa !8
  %reass.add.i = add nuw nsw i32 %25, %17
  %reass.mul.i = shl nuw nsw i32 %reass.add.i, 1
  %70 = add nuw nsw i32 %45, %42
  %71 = add nuw nsw i32 %70, %29
  %72 = add nuw nsw i32 %71, %reass.mul.i
  %73 = lshr i32 %72, 3
  %74 = trunc nuw i32 %73 to i8
  store i8 %74, ptr %4, align 1, !tbaa !8
  %75 = shl nuw nsw i32 %29, 1
  %76 = add nuw nsw i32 %33, 2
  %77 = add nuw nsw i32 %75, %25
  %78 = add nuw nsw i32 %77, %76
  %79 = lshr i32 %78, 2
  %80 = trunc nuw i32 %79 to i8
  store i8 %80, ptr %14, align 1, !tbaa !8
  %81 = getelementptr i8, ptr %4, i64 1
  store i8 %80, ptr %81, align 1, !tbaa !8
  %82 = shl nuw nsw i32 %33, 1
  %83 = add nuw nsw i32 %35, 2
  %84 = add nuw nsw i32 %82, %29
  %85 = add nuw nsw i32 %84, %83
  %86 = lshr i32 %85, 2
  %87 = trunc nuw i32 %86 to i8
  %88 = getelementptr i8, ptr %14, i64 1
  store i8 %87, ptr %88, align 1, !tbaa !8
  %89 = getelementptr i8, ptr %4, i64 2
  store i8 %87, ptr %89, align 1, !tbaa !8
  %90 = shl nuw nsw i32 %35, 1
  %91 = add nuw nsw i32 %90, %76
  %92 = add nuw nsw i32 %91, %38
  %93 = lshr i32 %92, 2
  %94 = trunc nuw i32 %93 to i8
  %95 = getelementptr i8, ptr %14, i64 2
  store i8 %94, ptr %95, align 1, !tbaa !8
  %96 = getelementptr i8, ptr %4, i64 3
  store i8 %94, ptr %96, align 1, !tbaa !8
  %97 = shl nuw nsw i32 %38, 1
  %98 = add nuw nsw i32 %97, %83
  %99 = add nuw nsw i32 %98, %41
  %100 = lshr i32 %99, 2
  %101 = trunc nuw i32 %100 to i8
  %102 = getelementptr i8, ptr %14, i64 3
  store i8 %101, ptr %102, align 1, !tbaa !8
  ret void
}